target datalayout = "e-m:e-p270:32:32-p271:32:32-p272:64:64-i64:64-i128:128-f80:128-n8:16:32:64-S128"
target triple = "x86_64-pc-linux-gnu"

%class.GrowableArrayBase = type { i32, i32 }
%class.GrowableArrayView.4 = type { %class.GrowableArrayBase, ptr }

@_ZN16JvmtiVTSuspender8_SR_modeE = hidden global i32 0, align 4
@_ZN16JvmtiVTSuspender15_suspended_listE = hidden global ptr null, align 8
@_ZN16JvmtiVTSuspender19_not_suspended_listE = hidden global ptr null, align 8

; Function Attrs: mustprogress nounwind uwtable
define linkonce_odr hidden noundef zeroext i1 @_ZNK17GrowableArrayViewIlE8containsERKl(ptr noundef nonnull align 8 dereferenceable(16) %0, ptr noundef nonnull align 8 dereferenceable(8) %1) #1 comdat align 2 {
  %3 = alloca i1, align 1
  %4 = alloca ptr, align 8
  %5 = alloca ptr, align 8
  %6 = alloca i32, align 4
  store ptr %0, ptr %4, align 8
  store ptr %1, ptr %5, align 8
  %7 = load ptr, ptr %4, align 8
  store i32 0, ptr %6, align 4
  br label %8

8:                                                ; preds = %25, %2
  %9 = load i32, ptr %6, align 4
  %10 = getelementptr inbounds %class.GrowableArrayBase, ptr %7, i32 0, i32 0
  %11 = load i32, ptr %10, align 8
  %12 = icmp slt i32 %9, %11
  br i1 %12, label %13, label %28

13:                                               ; preds = %8
  %14 = getelementptr inbounds %class.GrowableArrayView.4, ptr %7, i32 0, i32 1
  %15 = load ptr, ptr %14, align 8
  %16 = load i32, ptr %6, align 4
  %17 = sext i32 %16 to i64
  %18 = getelementptr inbounds i64, ptr %15, i64 %17
  %19 = load i64, ptr %18, align 8
  %20 = load ptr, ptr %5, align 8
  %21 = load i64, ptr %20, align 8
  %22 = icmp eq i64 %19, %21
  br i1 %22, label %23, label %24

23:                                               ; preds = %13
  store i1 true, ptr %3, align 1
  br label %29

24:                                               ; preds = %13
  br label %25

25:                                               ; preds = %24
  %26 = load i32, ptr %6, align 4
  %27 = add nsw i32 %26, 1
  store i32 %27, ptr %6, align 4
  br label %8, !llvm.loop !20

28:                                               ; preds = %8
  store i1 false, ptr %3, align 1
  br label %29

29:                                               ; preds = %28, %23
  %30 = load i1, ptr %3, align 1
  ret i1 %30
}

; Function Attrs: mustprogress nounwind uwtable
define hidden noundef zeroext i1 @_ZN16JvmtiVTSuspender20is_vthread_suspendedEl(i64 noundef %0) #1 align 2 {
  %2 = alloca i64, align 8
  %3 = alloca i8, align 1
  store i64 %0, ptr %2, align 8
  %4 = load i32, ptr @_ZN16JvmtiVTSuspender8_SR_modeE, align 4
  %5 = icmp eq i32 %4, 2
  br i1 %5, label %6, label %9

6:                                                ; preds = %1
  %7 = load ptr, ptr @_ZN16JvmtiVTSuspender19_not_suspended_listE, align 8
  %8 = call noundef zeroext i1 @_ZNK17GrowableArrayViewIlE8containsERKl(ptr noundef nonnull align 8 dereferenceable(16) %7, ptr noundef nonnull align 8 dereferenceable(8) %2)
  br i1 %8, label %9, label %17

9:                                                ; preds = %6, %1
  %10 = load i32, ptr @_ZN16JvmtiVTSuspender8_SR_modeE, align 4
  %11 = icmp eq i32 %10, 1
  br i1 %11, label %12, label %15

12:                                               ; preds = %9
  %13 = load ptr, ptr @_ZN16JvmtiVTSuspender15_suspended_listE, align 8
  %14 = call noundef zeroext i1 @_ZNK17GrowableArrayViewIlE8containsERKl(ptr noundef nonnull align 8 dereferenceable(16) %13, ptr noundef nonnull align 8 dereferenceable(8) %2)
  br label %15

15:                                               ; preds = %12, %9
  %16 = phi i1 [ false, %9 ], [ %14, %12 ]
  br label %17

17:                                               ; preds = %15, %6
  %18 = phi i1 [ true, %6 ], [ %16, %15 ]
  %19 = zext i1 %18 to i8
  store i8 %19, ptr %3, align 1
  %20 = load i8, ptr %3, align 1
  %21 = trunc i8 %20 to i1
  ret i1 %21
}