; Function Attrs: mustprogress nofree norecurse nosync nounwind willreturn memory(read, inaccessiblemem: none) uwtable
define hidden noundef zeroext i1 @_ZN16JvmtiVTSuspender20is_vthread_suspendedEl(i64 noundef %0) local_unnamed_addr #3 align 2 {
  %2 = load i32, ptr @_ZN16JvmtiVTSuspender8_SR_modeE, align 4
  switch i32 %2, label %_ZNK17GrowableArrayViewIlE8containsERKl.exit7 [
    i32 2, label %3
    i32 1, label %16
  ]

3:                                                ; preds = %1
  %4 = load ptr, ptr @_ZN16JvmtiVTSuspender19_not_suspended_listE, align 8
  %5 = load i32, ptr %4, align 8
  %6 = icmp sgt i32 %5, 0
  br i1 %6, label %.lr.ph.i, label %_ZNK17GrowableArrayViewIlE8containsERKl.exit7

.lr.ph.i:                                         ; preds = %3
  %7 = getelementptr inbounds i8, ptr %4, i64 8
  %8 = load ptr, ptr %7, align 8
  %9 = zext nneg i32 %5 to i64
  %10 = load i64, ptr %8, align 8
  %11 = icmp eq i64 %10, %0
  br i1 %11, label %_ZNK17GrowableArrayViewIlE8containsERKl.exit7, label %.lr.ph

.lr.ph:                                           ; preds = %.lr.ph.i, %12
  %indvars.iv.i10 = phi i64 [ %indvars.iv.next.i, %12 ], [ 0, %.lr.ph.i ]
  %indvars.iv.next.i = add nuw nsw i64 %indvars.iv.i10, 1
  %exitcond.not.i = icmp eq i64 %indvars.iv.next.i, %9
  br i1 %exitcond.not.i, label %_ZNK17GrowableArrayViewIlE8containsERKl.exit7.loopexit, label %12, !llvm.loop !19

12:                                               ; preds = %.lr.ph
  %13 = getelementptr inbounds i64, ptr %8, i64 %indvars.iv.next.i
  %14 = load i64, ptr %13, align 8
  %15 = icmp eq i64 %14, %0
  br i1 %15, label %_ZNK17GrowableArrayViewIlE8containsERKl.exit7.loopexit, label %.lr.ph, !llvm.loop !19

16:                                               ; preds = %1
  %17 = load ptr, ptr @_ZN16JvmtiVTSuspender15_suspended_listE, align 8
  %18 = load i32, ptr %17, align 8
  %19 = icmp sgt i32 %18, 0
  br i1 %19, label %.lr.ph.i2, label %_ZNK17GrowableArrayViewIlE8containsERKl.exit7

.lr.ph.i2:                                        ; preds = %16
  %20 = getelementptr inbounds i8, ptr %17, i64 8
  %21 = load ptr, ptr %20, align 8
  %22 = zext nneg i32 %18 to i64
  %23 = load i64, ptr %21, align 8
  %24 = icmp eq i64 %23, %0
  br i1 %24, label %_ZNK17GrowableArrayViewIlE8containsERKl.exit7, label %.lr.ph14

.lr.ph14:                                         ; preds = %.lr.ph.i2, %25
  %indvars.iv.i413 = phi i64 [ %indvars.iv.next.i5, %25 ], [ 0, %.lr.ph.i2 ]
  %indvars.iv.next.i5 = add nuw nsw i64 %indvars.iv.i413, 1
  %exitcond.not.i6 = icmp eq i64 %indvars.iv.next.i5, %22
  br i1 %exitcond.not.i6, label %_ZNK17GrowableArrayViewIlE8containsERKl.exit7.loopexit19, label %25, !llvm.loop !19

25:                                               ; preds = %.lr.ph14
  %26 = getelementptr inbounds i64, ptr %21, i64 %indvars.iv.next.i5
  %27 = load i64, ptr %26, align 8
  %28 = icmp eq i64 %27, %0
  br i1 %28, label %_ZNK17GrowableArrayViewIlE8containsERKl.exit7.loopexit19, label %.lr.ph14, !llvm.loop !19

_ZNK17GrowableArrayViewIlE8containsERKl.exit7.loopexit: ; preds = %12, %.lr.ph
  %29 = icmp uge i64 %indvars.iv.next.i, %9
  br label %_ZNK17GrowableArrayViewIlE8containsERKl.exit7

_ZNK17GrowableArrayViewIlE8containsERKl.exit7.loopexit19: ; preds = %25, %.lr.ph14
  %30 = icmp ult i64 %indvars.iv.next.i5, %22
  br label %_ZNK17GrowableArrayViewIlE8containsERKl.exit7

_ZNK17GrowableArrayViewIlE8containsERKl.exit7:    ; preds = %_ZNK17GrowableArrayViewIlE8containsERKl.exit7.loopexit19, %_ZNK17GrowableArrayViewIlE8containsERKl.exit7.loopexit, %.lr.ph.i, %.lr.ph.i2, %1, %3, %16
  %31 = phi i1 [ false, %16 ], [ true, %3 ], [ false, %1 ], [ true, %.lr.ph.i2 ], [ false, %.lr.ph.i ], [ %29, %_ZNK17GrowableArrayViewIlE8containsERKl.exit7.loopexit ], [ %30, %_ZNK17GrowableArrayViewIlE8containsERKl.exit7.loopexit19 ]
  ret i1 %31
}